; Function Attrs: nofree norecurse nosync nounwind memory(read, inaccessiblemem: none) uwtable
define ptr @lv_obj_get_sibling(ptr noundef readonly captures(address) %0, i32 noundef %1) local_unnamed_addr #4 {
  %3 = icmp eq ptr %0, null
  br i1 %3, label %.preheader.i, label %lv_obj_get_parent.exit.i

.preheader.i:                                     ; preds = %2, %.preheader.i
  br label %.preheader.i

lv_obj_get_parent.exit.i:                         ; preds = %2
  %4 = getelementptr inbounds nuw i8, ptr %0, i64 8
  %5 = load ptr, ptr %4, align 8, !tbaa !3
  %6 = icmp eq ptr %5, null
  br i1 %6, label %lv_obj_get_index.exit.thread, label %.preheader14.i

.preheader14.i:                                   ; preds = %lv_obj_get_parent.exit.i
  %7 = getelementptr inbounds nuw i8, ptr %5, i64 16
  %8 = load ptr, ptr %7, align 8, !tbaa !37
  %9 = getelementptr inbounds nuw i8, ptr %8, i64 64
  %10 = load i16, ptr %9, align 8, !tbaa !38
  %.not17.i = icmp eq i16 %10, 0
  br i1 %.not17.i, label %.preheader13.i.preheader, label %.lr.ph.i

.lr.ph.i:                                         ; preds = %.preheader14.i
  %11 = load ptr, ptr %8, align 8, !tbaa !42
  %wide.trip.count.i = zext i16 %10 to i64
  br label %12

12:                                               ; preds = %16, %.lr.ph.i
  %indvars.iv.i = phi i64 [ 0, %.lr.ph.i ], [ %indvars.iv.next.i, %16 ]
  %13 = getelementptr inbounds nuw ptr, ptr %11, i64 %indvars.iv.i
  %14 = load ptr, ptr %13, align 8, !tbaa !33
  %15 = icmp eq ptr %14, %0
  br i1 %15, label %lv_obj_get_index.exit, label %16

16:                                               ; preds = %12
  %indvars.iv.next.i = add nuw nsw i64 %indvars.iv.i, 1
  %exitcond.not.i = icmp eq i64 %indvars.iv.next.i, %wide.trip.count.i
  br i1 %exitcond.not.i, label %.preheader13.i.preheader, label %12, !llvm.loop !58

.preheader13.i.preheader:                         ; preds = %16, %.preheader14.i
  br label %.preheader13.i

.preheader13.i:                                   ; preds = %.preheader13.i.preheader, %.preheader13.i
  br label %.preheader13.i

lv_obj_get_index.exit:                            ; preds = %12
  %17 = trunc nuw nsw i64 %indvars.iv.i to i32
  %18 = add nsw i32 %1, %17
  %19 = icmp slt i32 %18, 0
  br i1 %19, label %lv_obj_get_child.exit, label %21

lv_obj_get_index.exit.thread:                     ; preds = %lv_obj_get_parent.exit.i
  %20 = icmp slt i32 %1, 1
  br i1 %20, label %lv_obj_get_child.exit, label %.preheader.i9

.preheader.i9:                                    ; preds = %lv_obj_get_index.exit.thread, %.preheader.i9
  br label %.preheader.i9

21:                                               ; preds = %lv_obj_get_index.exit
  %22 = getelementptr inbounds nuw i8, ptr %5, i64 16
  %23 = load ptr, ptr %22, align 8, !tbaa !37
  %24 = icmp eq ptr %23, null
  br i1 %24, label %lv_obj_get_child.exit, label %._crit_edge.i

._crit_edge.i:                                    ; preds = %21
  %25 = getelementptr inbounds nuw i8, ptr %23, i64 64
  %26 = load i16, ptr %25, align 8, !tbaa !38
  %27 = zext i16 %26 to i32
  %.not19.i = icmp samesign ult i32 %18, %27
  br i1 %.not19.i, label %28, label %lv_obj_get_child.exit

28:                                               ; preds = %._crit_edge.i
  %29 = load ptr, ptr %23, align 8, !tbaa !42
  %30 = zext nneg i32 %18 to i64
  %31 = getelementptr inbounds nuw ptr, ptr %29, i64 %30
  %32 = load ptr, ptr %31, align 8, !tbaa !33
  br label %lv_obj_get_child.exit

lv_obj_get_child.exit:                            ; preds = %lv_obj_get_index.exit.thread, %28, %._crit_edge.i, %21, %lv_obj_get_index.exit
  %.0 = phi ptr [ null, %lv_obj_get_index.exit ], [ null, %21 ], [ %32, %28 ], [ null, %._crit_edge.i ], [ null, %lv_obj_get_index.exit.thread ]
  ret ptr %.0
}